(lp0
I0
aI1
aI2
aI3
aI4
aI5
aI6
aI7
aI8
aI9
aI10
a.(lp0
I3
aI336
aI5898
aI27285
aI22612
aI15022
aI11773
aI35673
aI45249
aI44581
aI41621
a.(lp0
I615
aI438
aI29605
aI5087
aI981
aI78380
aI61615
aI44048
aI33574
aI31475
aI40367
a.